target datalayout = "e-m:e-p270:32:32-p271:32:32-p272:64:64-i64:64-i128:128-f80:128-n8:16:32:64-S128"
target triple = "x86_64-pc-linux-gnu"

%struct.sockaddr_in = type { i16, i16, %struct.in_addr, [8 x i8] }
%struct.in_addr = type { i32 }
%class.remote_bitbang_t = type { ptr, i32, i32, [65536 x i8], [65536 x i8], i64, i64 }

@stderr = external global ptr, align 8
@.str = private unnamed_addr constant [47 x i8] c"remote_bitbang failed to make socket: %s (%d)\0A\00", align 1
@.str.1 = private unnamed_addr constant [43 x i8] c"remote_bitbang failed setsockopt: %s (%d)\0A\00", align 1
@.str.2 = private unnamed_addr constant [47 x i8] c"remote_bitbang failed to bind socket: %s (%d)\0A\00", align 1
@.str.3 = private unnamed_addr constant [52 x i8] c"remote_bitbang failed to listen on socket: %s (%d)\0A\00", align 1
@.str.4 = private unnamed_addr constant [44 x i8] c"remote_bitbang getsockname failed: %s (%d)\0A\00", align 1
@.str.5 = private unnamed_addr constant [53 x i8] c"Listening for remote bitbang connection on port %d.\0A\00", align 1
@stdout = external global ptr, align 8

; Function Attrs: inlinehint mustprogress nounwind uwtable
define internal noundef zeroext i16 @_ZL10__bswap_16t(i16 noundef zeroext %0) #9 {
  %2 = alloca i16, align 2
  store i16 %0, ptr %2, align 2, !tbaa !8
  %3 = load i16, ptr %2, align 2, !tbaa !8
  %4 = zext i16 %3 to i32
  %5 = ashr i32 %4, 8
  %6 = and i32 %5, 255
  %7 = load i16, ptr %2, align 2, !tbaa !8
  %8 = zext i16 %7 to i32
  %9 = and i32 %8, 255
  %10 = shl i32 %9, 8
  %11 = or i32 %6, %10
  %12 = trunc i32 %11 to i16
  ret i16 %12
}

; Function Attrs: mustprogress uwtable
define void @_ZN16remote_bitbang_tC2EtP10jtag_dtm_t(ptr noundef nonnull align 8 dereferenceable(131104) %0, i16 noundef zeroext %1, ptr noundef %2) unnamed_addr #4 align 2 {
  %4 = alloca ptr, align 8
  %5 = alloca i16, align 2
  %6 = alloca ptr, align 8
  %7 = alloca i32, align 4
  %8 = alloca %struct.sockaddr_in, align 4
  %9 = alloca i32, align 4
  store ptr %0, ptr %4, align 8, !tbaa !3
  store i16 %1, ptr %5, align 2, !tbaa !8
  store ptr %2, ptr %6, align 8, !tbaa !10
  %10 = load ptr, ptr %4, align 8
  %11 = getelementptr inbounds nuw %class.remote_bitbang_t, ptr %10, i32 0, i32 0
  %12 = load ptr, ptr %6, align 8, !tbaa !10
  store ptr %12, ptr %11, align 8, !tbaa !12
  %13 = getelementptr inbounds nuw %class.remote_bitbang_t, ptr %10, i32 0, i32 1
  store i32 0, ptr %13, align 8, !tbaa !16
  %14 = getelementptr inbounds nuw %class.remote_bitbang_t, ptr %10, i32 0, i32 2
  store i32 0, ptr %14, align 4, !tbaa !17
  %15 = getelementptr inbounds nuw %class.remote_bitbang_t, ptr %10, i32 0, i32 5
  store i64 0, ptr %15, align 8, !tbaa !18
  %16 = getelementptr inbounds nuw %class.remote_bitbang_t, ptr %10, i32 0, i32 6
  store i64 0, ptr %16, align 8, !tbaa !19
  %17 = call i32 @socket(i32 noundef 2, i32 noundef 1, i32 noundef 0) #3
  %18 = getelementptr inbounds nuw %class.remote_bitbang_t, ptr %10, i32 0, i32 1
  store i32 %17, ptr %18, align 8, !tbaa !16
  %19 = getelementptr inbounds nuw %class.remote_bitbang_t, ptr %10, i32 0, i32 1
  %20 = load i32, ptr %19, align 8, !tbaa !16
  %21 = icmp eq i32 %20, -1
  br i1 %21, label %22, label %30

22:                                               ; preds = %3
  %23 = load ptr, ptr @stderr, align 8, !tbaa !20
  %24 = call ptr @__errno_location() #11
  %25 = load i32, ptr %24, align 4, !tbaa !22
  %26 = call ptr @strerror(i32 noundef %25) #3
  %27 = call ptr @__errno_location() #11
  %28 = load i32, ptr %27, align 4, !tbaa !22
  %29 = call i32 (ptr, ptr, ...) @fprintf(ptr noundef %23, ptr noundef @.str, ptr noundef %26, i32 noundef %28) #3
  call void @abort() #12
  unreachable

30:                                               ; preds = %3
  %31 = getelementptr inbounds nuw %class.remote_bitbang_t, ptr %10, i32 0, i32 1
  %32 = load i32, ptr %31, align 8, !tbaa !16
  %33 = call i32 (i32, i32, ...) @fcntl(i32 noundef %32, i32 noundef 4, i32 noundef 2048)
  call void @llvm.lifetime.start.p0(i64 4, ptr %7) #3
  store i32 1, ptr %7, align 4, !tbaa !22
  %34 = getelementptr inbounds nuw %class.remote_bitbang_t, ptr %10, i32 0, i32 1
  %35 = load i32, ptr %34, align 8, !tbaa !16
  %36 = call i32 @setsockopt(i32 noundef %35, i32 noundef 1, i32 noundef 2, ptr noundef %7, i32 noundef 4) #3
  %37 = icmp eq i32 %36, -1
  br i1 %37, label %38, label %46

38:                                               ; preds = %30
  %39 = load ptr, ptr @stderr, align 8, !tbaa !20
  %40 = call ptr @__errno_location() #11
  %41 = load i32, ptr %40, align 4, !tbaa !22
  %42 = call ptr @strerror(i32 noundef %41) #3
  %43 = call ptr @__errno_location() #11
  %44 = load i32, ptr %43, align 4, !tbaa !22
  %45 = call i32 (ptr, ptr, ...) @fprintf(ptr noundef %39, ptr noundef @.str.1, ptr noundef %42, i32 noundef %44) #3
  call void @abort() #12
  unreachable

46:                                               ; preds = %30
  call void @llvm.lifetime.start.p0(i64 16, ptr %8) #3
  call void @llvm.memset.p0.i64(ptr align 4 %8, i8 0, i64 16, i1 false)
  %47 = getelementptr inbounds nuw %struct.sockaddr_in, ptr %8, i32 0, i32 0
  store i16 2, ptr %47, align 4, !tbaa !23
  %48 = getelementptr inbounds nuw %struct.sockaddr_in, ptr %8, i32 0, i32 2
  %49 = getelementptr inbounds nuw %struct.in_addr, ptr %48, i32 0, i32 0
  store i32 0, ptr %49, align 4, !tbaa !26
  %50 = load i16, ptr %5, align 2, !tbaa !8
  %51 = call noundef zeroext i16 @_ZL10__bswap_16t(i16 noundef zeroext %50)
  %52 = getelementptr inbounds nuw %struct.sockaddr_in, ptr %8, i32 0, i32 1
  store i16 %51, ptr %52, align 2, !tbaa !27
  %53 = getelementptr inbounds nuw %class.remote_bitbang_t, ptr %10, i32 0, i32 1
  %54 = load i32, ptr %53, align 8, !tbaa !16
  %55 = call i32 @bind(i32 noundef %54, ptr noundef %8, i32 noundef 16) #3
  %56 = icmp eq i32 %55, -1
  br i1 %56, label %57, label %65

57:                                               ; preds = %46
  %58 = load ptr, ptr @stderr, align 8, !tbaa !20
  %59 = call ptr @__errno_location() #11
  %60 = load i32, ptr %59, align 4, !tbaa !22
  %61 = call ptr @strerror(i32 noundef %60) #3
  %62 = call ptr @__errno_location() #11
  %63 = load i32, ptr %62, align 4, !tbaa !22
  %64 = call i32 (ptr, ptr, ...) @fprintf(ptr noundef %58, ptr noundef @.str.2, ptr noundef %61, i32 noundef %63) #3
  call void @abort() #12
  unreachable

65:                                               ; preds = %46
  %66 = getelementptr inbounds nuw %class.remote_bitbang_t, ptr %10, i32 0, i32 1
  %67 = load i32, ptr %66, align 8, !tbaa !16
  %68 = call i32 @listen(i32 noundef %67, i32 noundef 1) #3
  %69 = icmp eq i32 %68, -1
  br i1 %69, label %70, label %78

70:                                               ; preds = %65
  %71 = load ptr, ptr @stderr, align 8, !tbaa !20
  %72 = call ptr @__errno_location() #11
  %73 = load i32, ptr %72, align 4, !tbaa !22
  %74 = call ptr @strerror(i32 noundef %73) #3
  %75 = call ptr @__errno_location() #11
  %76 = load i32, ptr %75, align 4, !tbaa !22
  %77 = call i32 (ptr, ptr, ...) @fprintf(ptr noundef %71, ptr noundef @.str.3, ptr noundef %74, i32 noundef %76) #3
  call void @abort() #12
  unreachable

78:                                               ; preds = %65
  call void @llvm.lifetime.start.p0(i64 4, ptr %9) #3
  store i32 16, ptr %9, align 4, !tbaa !22
  %79 = getelementptr inbounds nuw %class.remote_bitbang_t, ptr %10, i32 0, i32 1
  %80 = load i32, ptr %79, align 8, !tbaa !16
  %81 = call i32 @getsockname(i32 noundef %80, ptr noundef %8, ptr noundef %9) #3
  %82 = icmp eq i32 %81, -1
  br i1 %82, label %83, label %91

83:                                               ; preds = %78
  %84 = load ptr, ptr @stderr, align 8, !tbaa !20
  %85 = call ptr @__errno_location() #11
  %86 = load i32, ptr %85, align 4, !tbaa !22
  %87 = call ptr @strerror(i32 noundef %86) #3
  %88 = call ptr @__errno_location() #11
  %89 = load i32, ptr %88, align 4, !tbaa !22
  %90 = call i32 (ptr, ptr, ...) @fprintf(ptr noundef %84, ptr noundef @.str.4, ptr noundef %87, i32 noundef %89) #3
  call void @abort() #12
  unreachable

91:                                               ; preds = %78
  %92 = getelementptr inbounds nuw %struct.sockaddr_in, ptr %8, i32 0, i32 1
  %93 = load i16, ptr %92, align 2, !tbaa !27
  %94 = call noundef zeroext i16 @_ZL10__bswap_16t(i16 noundef zeroext %93)
  %95 = zext i16 %94 to i32
  %96 = call i32 (ptr, ...) @printf(ptr noundef @.str.5, i32 noundef %95)
  %97 = load ptr, ptr @stdout, align 8, !tbaa !20
  %98 = call i32 @fflush(ptr noundef %97)
  call void @llvm.lifetime.end.p0(i64 4, ptr %9) #3
  call void @llvm.lifetime.end.p0(i64 16, ptr %8) #3
  call void @llvm.lifetime.end.p0(i64 4, ptr %7) #3
  ret void
}