; Function Attrs: mustprogress uwtable
define void @_ZN16remote_bitbang_tC2EtP10jtag_dtm_t(ptr noundef nonnull align 8 captures(none) dereferenceable(131104) initializes((0, 16), (131088, 131104)) %0, i16 noundef zeroext %1, ptr noundef %2) unnamed_addr #3 align 2 {
  %4 = alloca i32, align 4
  %5 = alloca %struct.sockaddr_in, align 4
  %6 = alloca i32, align 4
  store ptr %2, ptr %0, align 8, !tbaa !3
  %7 = getelementptr inbounds nuw i8, ptr %0, i64 8
  store i32 0, ptr %7, align 8, !tbaa !11
  %8 = getelementptr inbounds nuw i8, ptr %0, i64 12
  store i32 0, ptr %8, align 4, !tbaa !12
  %9 = getelementptr inbounds nuw i8, ptr %0, i64 131088
  tail call void @llvm.memset.p0.i64(ptr noundef nonnull align 8 dereferenceable(16) %9, i8 0, i64 16, i1 false)
  %10 = tail call i32 @socket(i32 noundef 2, i32 noundef 1, i32 noundef 0) #12
  store i32 %10, ptr %7, align 8, !tbaa !11
  %11 = icmp eq i32 %10, -1
  br i1 %11, label %12, label %19

12:                                               ; preds = %3
  %13 = load ptr, ptr @stderr, align 8, !tbaa !13
  %14 = tail call ptr @__errno_location() #13
  %15 = load i32, ptr %14, align 4, !tbaa !15
  %16 = tail call ptr @strerror(i32 noundef %15) #12
  %17 = load i32, ptr %14, align 4, !tbaa !15
  %18 = tail call i32 (ptr, ptr, ...) @fprintf(ptr noundef %13, ptr noundef nonnull @.str, ptr noundef %16, i32 noundef %17) #14
  tail call void @abort() #15
  unreachable

19:                                               ; preds = %3
  %20 = tail call i32 (i32, i32, ...) @fcntl(i32 noundef %10, i32 noundef 4, i32 noundef 2048)
  call void @llvm.lifetime.start.p0(i64 4, ptr nonnull %4) #12
  store i32 1, ptr %4, align 4, !tbaa !15
  %21 = load i32, ptr %7, align 8, !tbaa !11
  %22 = call i32 @setsockopt(i32 noundef %21, i32 noundef 1, i32 noundef 2, ptr noundef nonnull %4, i32 noundef 4) #12
  %23 = icmp eq i32 %22, -1
  br i1 %23, label %24, label %31

24:                                               ; preds = %19
  %25 = load ptr, ptr @stderr, align 8, !tbaa !13
  %26 = tail call ptr @__errno_location() #13
  %27 = load i32, ptr %26, align 4, !tbaa !15
  %28 = call ptr @strerror(i32 noundef %27) #12
  %29 = load i32, ptr %26, align 4, !tbaa !15
  %30 = call i32 (ptr, ptr, ...) @fprintf(ptr noundef %25, ptr noundef nonnull @.str.1, ptr noundef %28, i32 noundef %29) #14
  call void @abort() #15
  unreachable

31:                                               ; preds = %19
  call void @llvm.lifetime.start.p0(i64 16, ptr nonnull %5) #12
  %32 = getelementptr inbounds nuw i8, ptr %5, i64 8
  store i64 0, ptr %32, align 4
  store i16 2, ptr %5, align 4, !tbaa !16
  %33 = getelementptr inbounds nuw i8, ptr %5, i64 4
  store i32 0, ptr %33, align 4, !tbaa !20
  %rev.i = call noundef i16 @llvm.bswap.i16(i16 %1)
  %34 = getelementptr inbounds nuw i8, ptr %5, i64 2
  store i16 %rev.i, ptr %34, align 2, !tbaa !21
  %35 = load i32, ptr %7, align 8, !tbaa !11
  %36 = call i32 @bind(i32 noundef %35, ptr noundef nonnull %5, i32 noundef 16) #12
  %37 = icmp eq i32 %36, -1
  br i1 %37, label %38, label %45

38:                                               ; preds = %31
  %39 = load ptr, ptr @stderr, align 8, !tbaa !13
  %40 = tail call ptr @__errno_location() #13
  %41 = load i32, ptr %40, align 4, !tbaa !15
  %42 = call ptr @strerror(i32 noundef %41) #12
  %43 = load i32, ptr %40, align 4, !tbaa !15
  %44 = call i32 (ptr, ptr, ...) @fprintf(ptr noundef %39, ptr noundef nonnull @.str.2, ptr noundef %42, i32 noundef %43) #14
  call void @abort() #15
  unreachable

45:                                               ; preds = %31
  %46 = load i32, ptr %7, align 8, !tbaa !11
  %47 = call i32 @listen(i32 noundef %46, i32 noundef 1) #12
  %48 = icmp eq i32 %47, -1
  br i1 %48, label %49, label %56

49:                                               ; preds = %45
  %50 = load ptr, ptr @stderr, align 8, !tbaa !13
  %51 = tail call ptr @__errno_location() #13
  %52 = load i32, ptr %51, align 4, !tbaa !15
  %53 = call ptr @strerror(i32 noundef %52) #12
  %54 = load i32, ptr %51, align 4, !tbaa !15
  %55 = call i32 (ptr, ptr, ...) @fprintf(ptr noundef %50, ptr noundef nonnull @.str.3, ptr noundef %53, i32 noundef %54) #14
  call void @abort() #15
  unreachable

56:                                               ; preds = %45
  call void @llvm.lifetime.start.p0(i64 4, ptr nonnull %6) #12
  store i32 16, ptr %6, align 4, !tbaa !15
  %57 = load i32, ptr %7, align 8, !tbaa !11
  %58 = call i32 @getsockname(i32 noundef %57, ptr noundef nonnull %5, ptr noundef nonnull %6) #12
  %59 = icmp eq i32 %58, -1
  br i1 %59, label %60, label %67

60:                                               ; preds = %56
  %61 = load ptr, ptr @stderr, align 8, !tbaa !13
  %62 = tail call ptr @__errno_location() #13
  %63 = load i32, ptr %62, align 4, !tbaa !15
  %64 = call ptr @strerror(i32 noundef %63) #12
  %65 = load i32, ptr %62, align 4, !tbaa !15
  %66 = call i32 (ptr, ptr, ...) @fprintf(ptr noundef %61, ptr noundef nonnull @.str.4, ptr noundef %64, i32 noundef %65) #14
  call void @abort() #15
  unreachable

67:                                               ; preds = %56
  %68 = load i16, ptr %34, align 2, !tbaa !21
  %rev.i2 = call noundef i16 @llvm.bswap.i16(i16 %68)
  %69 = zext i16 %rev.i2 to i32
  %70 = call i32 (ptr, ...) @printf(ptr noundef nonnull dereferenceable(1) @.str.5, i32 noundef %69)
  %71 = load ptr, ptr @stdout, align 8, !tbaa !13
  %72 = call i32 @fflush(ptr noundef %71)
  call void @llvm.lifetime.end.p0(i64 4, ptr nonnull %6) #12
  call void @llvm.lifetime.end.p0(i64 16, ptr nonnull %5) #12
  call void @llvm.lifetime.end.p0(i64 4, ptr nonnull %4) #12
  ret void
}